; Function Attrs: mustprogress nofree norecurse nosync nounwind willreturn memory(argmem: read) uwtable
define hidden noundef i32 @_ZNK8FrameMap26sp_offset_for_monitor_lockEi(ptr nocapture noundef nonnull readonly align 8 dereferenceable(40) %0, i32 noundef %1) local_unnamed_addr #2 align 2 {
  %3 = getelementptr inbounds i8, ptr %0, i64 16
  %4 = load i32, ptr %3, align 8
  %5 = add i32 %4, 7
  %6 = and i32 %5, -8
  %7 = getelementptr inbounds i8, ptr %0, i64 12
  %8 = load i32, ptr %7, align 4
  %9 = shl nsw i32 %8, 2
  %10 = add i32 %9, 7
  %11 = add i32 %10, %6
  %12 = and i32 %11, -8
  %13 = shl nsw i32 %1, 4
  %14 = add nsw i32 %12, %13
  ret i32 %14
}